target datalayout = "e-m:e-p270:32:32-p271:32:32-p272:64:64-i64:64-i128:128-f80:128-n8:16:32:64-S128"
target triple = "x86_64-pc-linux-gnu"

%struct.PyCompilerFlags = type { i32, i32 }
%struct._PyCompiler = type { ptr, ptr, %struct._PyFutureFeatures, %struct.PyCompilerFlags, i32, i32, ptr, ptr, ptr, i8 }
%struct._PyFutureFeatures = type { i32, %struct._Py_SourceLocation }
%struct._Py_SourceLocation = type { i32, i32, i32, i32 }
%struct.compiler_unit = type { ptr, i32, ptr, ptr, ptr, ptr, i32, i32, [21 x %struct._PyCompile_FBlockInfo], %struct._PyCompile_CodeUnitMetadata }
%struct._PyCompile_FBlockInfo = type { i32, %struct._PyJumpTargetLabel, %struct._Py_SourceLocation, %struct._PyJumpTargetLabel, ptr }
%struct._PyJumpTargetLabel = type { i32 }
%struct._PyCompile_CodeUnitMetadata = type { ptr, ptr, ptr, ptr, ptr, ptr, ptr, ptr, i64, i64, i64, i32 }

; Function Attrs: nounwind uwtable
define hidden void @_PyCompile_PopFBlock(ptr noundef %0, i32 noundef %1, i32 %2) #0 {
  %4 = alloca %struct._PyJumpTargetLabel, align 4
  %5 = alloca ptr, align 8
  %6 = alloca i32, align 4
  %7 = alloca ptr, align 8
  %8 = getelementptr inbounds nuw %struct._PyJumpTargetLabel, ptr %4, i32 0, i32 0
  store i32 %2, ptr %8, align 4
  store ptr %0, ptr %5, align 8, !tbaa !4
  store i32 %1, ptr %6, align 4, !tbaa !50
  call void @llvm.lifetime.start.p0(i64 8, ptr %7) #8
  %9 = load ptr, ptr %5, align 8, !tbaa !4
  %10 = getelementptr inbounds nuw %struct._PyCompiler, ptr %9, i32 0, i32 7
  %11 = load ptr, ptr %10, align 8, !tbaa !48
  store ptr %11, ptr %7, align 8, !tbaa !33
  %12 = load ptr, ptr %7, align 8, !tbaa !33
  %13 = getelementptr inbounds nuw %struct.compiler_unit, ptr %12, i32 0, i32 6
  %14 = load i32, ptr %13, align 8, !tbaa !66
  %15 = add i32 %14, -1
  store i32 %15, ptr %13, align 8, !tbaa !66
  call void @llvm.lifetime.end.p0(i64 8, ptr %7) #8
  ret void
}