; Function Attrs: mustprogress nofree norecurse nosync nounwind willreturn memory(readwrite, inaccessiblemem: none) uwtable
define hidden void @_PyCompile_PopFBlock(ptr noundef readonly captures(none) %0, i32 noundef %1, i32 %2) local_unnamed_addr #4 {
  %4 = getelementptr inbounds nuw i8, ptr %0, i64 64
  %5 = load ptr, ptr %4, align 8, !tbaa !42
  %6 = getelementptr inbounds nuw i8, ptr %5, i64 48
  %7 = load i32, ptr %6, align 8, !tbaa !59
  %8 = add i32 %7, -1
  store i32 %8, ptr %6, align 8, !tbaa !59
  ret void
}